target datalayout = "e-m:e-p270:32:32-p271:32:32-p272:64:64-i64:64-i128:128-f80:128-n8:16:32:64-S128"
target triple = "x86_64-pc-linux-gnu"

%class.QString = type { %struct.QArrayDataPointer }
%struct.QArrayDataPointer = type { ptr, ptr, i64 }
%class.LteRlcGraphDialog = type <{ %class.WiresharkDialog.base, [3 x i8], ptr, i8, [7 x i8], ptr, %class.QPoint, ptr, %struct.rlc_graph, %class.QMultiMap, %class.QMap, ptr, ptr, ptr, ptr, ptr, i32, [4 x i8] }>
%class.WiresharkDialog.base = type <{ %class.GeometryStateDialog, ptr, i8, [7 x i8], %class.QString, %class.QList, i32, i8 }>
%class.GeometryStateDialog = type { %class.QDialog, %class.QString }
%class.QDialog = type { %class.QWidget }
%class.QWidget = type { %class.QObject, %class.QPaintDevice.base, ptr }
%class.QObject = type { ptr, %class.QScopedPointer }
%class.QScopedPointer = type { ptr }
%class.QPaintDevice.base = type <{ ptr, i16 }>
%class.QList = type { %struct.QArrayDataPointer.0 }
%struct.QArrayDataPointer.0 = type { ptr, ptr, i64 }
%class.QPoint = type { i32, i32 }
%struct.rlc_graph = type { ptr, ptr, i32, i8, i16, i16, i16, i8, i8 }
%class.QMultiMap = type { %"class.QtPrivate::QExplicitlySharedDataPointerV2" }
%"class.QtPrivate::QExplicitlySharedDataPointerV2" = type { ptr }
%class.QMap = type { %"class.QtPrivate::QExplicitlySharedDataPointerV2.1" }
%"class.QtPrivate::QExplicitlySharedDataPointerV2.1" = type { ptr }
%class.Ui_LteRlcGraphDialog = type { ptr, ptr, ptr, ptr, ptr, ptr, ptr, ptr, ptr, ptr, ptr, ptr, ptr, ptr, ptr, ptr, ptr, ptr, ptr, ptr, ptr, ptr, ptr, ptr, ptr, ptr, ptr, ptr, ptr, ptr, ptr, ptr }
%class.QCustomPlot = type <{ %class.QWidget, ptr, ptr, ptr, ptr, ptr, %class.QRect, double, ptr, i8, [7 x i8], %class.QList.15, %class.QList.19, %class.QList.23, %class.QList.27, %class.QFlags.14, %class.QFlags.14, %class.QFlags.31, i32, i8, [7 x i8], %class.QBrush, %class.QPixmap, %class.QPixmap, i8, [3 x i8], i32, ptr, %class.QFlags.35, i32, i32, [4 x i8], ptr, i8, [7 x i8], %class.QList.36, %class.QPoint, i8, [7 x i8], %class.QPointer, %class.QPointer, %class.QVariant, %class.QVariant, i8, i8, [6 x i8], double, double, i32, %class.QFlags.14, i8, [7 x i8] }>
%class.QRect = type { i32, i32, i32, i32 }
%class.QList.15 = type { %struct.QArrayDataPointer.18 }
%struct.QArrayDataPointer.18 = type { ptr, ptr, i64 }
%class.QList.19 = type { %struct.QArrayDataPointer.22 }
%struct.QArrayDataPointer.22 = type { ptr, ptr, i64 }
%class.QList.23 = type { %struct.QArrayDataPointer.26 }
%struct.QArrayDataPointer.26 = type { ptr, ptr, i64 }
%class.QList.27 = type { %struct.QArrayDataPointer.30 }
%struct.QArrayDataPointer.30 = type { ptr, ptr, i64 }
%class.QFlags.31 = type { i32 }
%class.QBrush = type { %"class.std::unique_ptr" }
%"class.std::unique_ptr" = type { %"struct.std::__uniq_ptr_data" }
%"struct.std::__uniq_ptr_data" = type { %"class.std::__uniq_ptr_impl" }
%"class.std::__uniq_ptr_impl" = type { %"class.std::tuple" }
%"class.std::tuple" = type { %"struct.std::_Tuple_impl" }
%"struct.std::_Tuple_impl" = type { %"struct.std::_Head_base.33" }
%"struct.std::_Head_base.33" = type { ptr }
%class.QPixmap = type { %class.QPaintDevice.base, %class.QExplicitlySharedDataPointer.34 }
%class.QExplicitlySharedDataPointer.34 = type { ptr }
%class.QFlags.35 = type { i32 }
%class.QList.36 = type { %struct.QArrayDataPointer.39 }
%struct.QArrayDataPointer.39 = type { ptr, ptr, i64 }
%class.QPointer = type { %class.QWeakPointer }
%class.QWeakPointer = type { ptr, ptr }
%class.QVariant = type { %"struct.QVariant::Private" }
%"struct.QVariant::Private" = type { %union.anon, i64 }
%union.anon = type { ptr, [16 x i8] }
%class.QFlags.14 = type { i32 }
%class.QFont = type <{ %class.QExplicitlySharedDataPointer, i32, [4 x i8] }>
%class.QExplicitlySharedDataPointer = type { ptr }
%struct.QLatin1Char = type { i8 }
%class.QPen = type { ptr }
%class.QColor = type <{ i32, %"union.QColor::CT", [2 x i8] }>
%"union.QColor::CT" = type { %struct.anon }
%struct.anon = type { i16, i16, i16, i16, i16 }
%class.QList.6 = type { %struct.QArrayDataPointer.9 }
%struct.QArrayDataPointer.9 = type { ptr, ptr, i64 }
%class.QCPLayerable.base = type <{ %class.QObject, i8, [7 x i8], ptr, %class.QPointer, ptr, i8 }>
%class.QCPRange = type { double, double }
%class.QCPAxis = type { %class.QCPLayerable.base, i32, ptr, i32, i32, %class.QFlags, %class.QFlags, %class.QPen, %class.QPen, %class.QString, %class.QFont, %class.QFont, %class.QColor, %class.QColor, i8, [7 x i8], %class.QFont, %class.QFont, %class.QColor, %class.QColor, i32, %struct.QLatin1Char, i8, i8, i8, %class.QPen, %class.QPen, %class.QPen, %class.QPen, %class.QCPRange, i8, i32, ptr, ptr, %class.QSharedPointer, %class.QList.6, %class.QList.10, %class.QList.6, i8, i32, i8, %class.QCPRange, %class.QFlags.14, %class.QFlags.14 }
%class.QFlags = type { i32 }
%class.QSharedPointer = type { ptr, ptr }
%class.QList.10 = type { %struct.QArrayDataPointer.13 }
%struct.QArrayDataPointer.13 = type { ptr, ptr, i64 }

; Function Attrs: mustprogress nounwind uwtable
define linkonce_odr noundef double @_ZNK8QCPRange6centerEv(ptr noundef nonnull align 8 dereferenceable(16) %0) #3 comdat align 2 {
  %2 = alloca ptr, align 8
  store ptr %0, ptr %2, align 8
  %3 = load ptr, ptr %2, align 8
  %4 = getelementptr inbounds %class.QCPRange, ptr %3, i32 0, i32 1
  %5 = load double, ptr %4, align 8
  %6 = getelementptr inbounds %class.QCPRange, ptr %3, i32 0, i32 0
  %7 = load double, ptr %6, align 8
  %8 = fadd double %5, %7
  %9 = fmul double %8, 5.000000e-01
  ret double %9
}

; Function Attrs: mustprogress nounwind uwtable
define linkonce_odr noundef double @_ZNK8QCPRange4sizeEv(ptr noundef nonnull align 8 dereferenceable(16) %0) #3 comdat align 2 {
  %2 = alloca ptr, align 8
  store ptr %0, ptr %2, align 8
  %3 = load ptr, ptr %2, align 8
  %4 = getelementptr inbounds %class.QCPRange, ptr %3, i32 0, i32 1
  %5 = load double, ptr %4, align 8
  %6 = getelementptr inbounds %class.QCPRange, ptr %3, i32 0, i32 0
  %7 = load double, ptr %6, align 8
  %8 = fsub double %5, %7
  ret double %8
}

; Function Attrs: mustprogress nounwind uwtable
define linkonce_odr { double, double } @_ZNK7QCPAxis5rangeEv(ptr noundef nonnull align 8 dereferenceable(472) %0) #3 comdat align 2 {
  %2 = alloca %class.QCPRange, align 8
  %3 = alloca ptr, align 8
  store ptr %0, ptr %3, align 8
  %4 = load ptr, ptr %3, align 8
  %5 = getelementptr inbounds %class.QCPAxis, ptr %4, i32 0, i32 29
  call void @llvm.memcpy.p0.p0.i64(ptr align 8 %2, ptr align 8 %5, i64 16, i1 false)
  %6 = load { double, double }, ptr %2, align 8
  ret { double, double } %6
}

; Function Attrs: mustprogress uwtable
define void @_ZN17LteRlcGraphDialog8zoomAxesEb(ptr noundef nonnull align 8 dereferenceable(268) %0, i1 noundef zeroext %1) #0 align 2 {
  %3 = alloca ptr, align 8
  %4 = alloca i8, align 1
  %5 = alloca ptr, align 8
  %6 = alloca double, align 8
  %7 = alloca double, align 8
  %8 = alloca %class.QCPRange, align 8
  %9 = alloca %class.QCPRange, align 8
  %10 = alloca %class.QCPRange, align 8
  %11 = alloca %class.QCPRange, align 8
  store ptr %0, ptr %3, align 8
  %12 = zext i1 %1 to i8
  store i8 %12, ptr %4, align 1
  %13 = load ptr, ptr %3, align 8
  %14 = getelementptr inbounds %class.LteRlcGraphDialog, ptr %13, i32 0, i32 2
  %15 = load ptr, ptr %14, align 8
  %16 = getelementptr inbounds %class.Ui_LteRlcGraphDialog, ptr %15, i32 0, i32 22
  %17 = load ptr, ptr %16, align 8
  store ptr %17, ptr %5, align 8
  %18 = load ptr, ptr %5, align 8
  %19 = call noundef ptr @_ZNK11QCustomPlot8axisRectEi(ptr noundef nonnull align 8 dereferenceable(513) %18, i32 noundef 0)
  %20 = call noundef double @_ZN11QCPAxisRect15rangeZoomFactorEN2Qt11OrientationE(ptr noundef nonnull align 8 dereferenceable(432) %19, i32 noundef 1)
  store double %20, ptr %6, align 8
  %21 = load ptr, ptr %5, align 8
  %22 = call noundef ptr @_ZNK11QCustomPlot8axisRectEi(ptr noundef nonnull align 8 dereferenceable(513) %21, i32 noundef 0)
  %23 = call noundef double @_ZN11QCPAxisRect15rangeZoomFactorEN2Qt11OrientationE(ptr noundef nonnull align 8 dereferenceable(432) %22, i32 noundef 2)
  store double %23, ptr %7, align 8
  %24 = load i8, ptr %4, align 1
  %25 = trunc i8 %24 to i1
  br i1 %25, label %31, label %26

26:                                               ; preds = %2
  %27 = load double, ptr %6, align 8
  %28 = call double @pow(double noundef %27, double noundef -1.000000e+00) #17
  store double %28, ptr %6, align 8
  %29 = load double, ptr %7, align 8
  %30 = call double @pow(double noundef %29, double noundef -1.000000e+00) #17
  store double %30, ptr %7, align 8
  br label %31

31:                                               ; preds = %26, %2
  %32 = load i8, ptr %4, align 1
  %33 = trunc i8 %32 to i1
  br i1 %33, label %34, label %47

34:                                               ; preds = %31
  %35 = load ptr, ptr %5, align 8
  %36 = getelementptr inbounds %class.QCustomPlot, ptr %35, i32 0, i32 2
  %37 = load ptr, ptr %36, align 8
  %38 = call { double, double } @_ZNK7QCPAxis5rangeEv(ptr noundef nonnull align 8 dereferenceable(472) %37)
  %39 = getelementptr inbounds { double, double }, ptr %8, i32 0, i32 0
  %40 = extractvalue { double, double } %38, 0
  store double %40, ptr %39, align 8
  %41 = getelementptr inbounds { double, double }, ptr %8, i32 0, i32 1
  %42 = extractvalue { double, double } %38, 1
  store double %42, ptr %41, align 8
  %43 = call noundef double @_ZNK8QCPRange4sizeEv(ptr noundef nonnull align 8 dereferenceable(16) %8)
  %44 = fcmp olt double %43, 1.000000e+01
  br i1 %44, label %45, label %46

45:                                               ; preds = %34
  br label %88

46:                                               ; preds = %34
  br label %60

47:                                               ; preds = %31
  %48 = load ptr, ptr %5, align 8
  %49 = getelementptr inbounds %class.QCustomPlot, ptr %48, i32 0, i32 2
  %50 = load ptr, ptr %49, align 8
  %51 = call { double, double } @_ZNK7QCPAxis5rangeEv(ptr noundef nonnull align 8 dereferenceable(472) %50)
  %52 = getelementptr inbounds { double, double }, ptr %9, i32 0, i32 0
  %53 = extractvalue { double, double } %51, 0
  store double %53, ptr %52, align 8
  %54 = getelementptr inbounds { double, double }, ptr %9, i32 0, i32 1
  %55 = extractvalue { double, double } %51, 1
  store double %55, ptr %54, align 8
  %56 = call noundef double @_ZNK8QCPRange4sizeEv(ptr noundef nonnull align 8 dereferenceable(16) %9)
  %57 = fcmp ogt double %56, 6.554600e+04
  br i1 %57, label %58, label %59

58:                                               ; preds = %47
  br label %88

59:                                               ; preds = %47
  br label %60

60:                                               ; preds = %59, %46
  %61 = load ptr, ptr %5, align 8
  %62 = getelementptr inbounds %class.QCustomPlot, ptr %61, i32 0, i32 1
  %63 = load ptr, ptr %62, align 8
  %64 = load double, ptr %6, align 8
  %65 = load ptr, ptr %5, align 8
  %66 = getelementptr inbounds %class.QCustomPlot, ptr %65, i32 0, i32 1
  %67 = load ptr, ptr %66, align 8
  %68 = call { double, double } @_ZNK7QCPAxis5rangeEv(ptr noundef nonnull align 8 dereferenceable(472) %67)
  %69 = getelementptr inbounds { double, double }, ptr %10, i32 0, i32 0
  %70 = extractvalue { double, double } %68, 0
  store double %70, ptr %69, align 8
  %71 = getelementptr inbounds { double, double }, ptr %10, i32 0, i32 1
  %72 = extractvalue { double, double } %68, 1
  store double %72, ptr %71, align 8
  %73 = call noundef double @_ZNK8QCPRange6centerEv(ptr noundef nonnull align 8 dereferenceable(16) %10)
  call void @_ZN7QCPAxis10scaleRangeEdd(ptr noundef nonnull align 8 dereferenceable(472) %63, double noundef %64, double noundef %73)
  %74 = load ptr, ptr %5, align 8
  %75 = getelementptr inbounds %class.QCustomPlot, ptr %74, i32 0, i32 2
  %76 = load ptr, ptr %75, align 8
  %77 = load double, ptr %7, align 8
  %78 = load ptr, ptr %5, align 8
  %79 = getelementptr inbounds %class.QCustomPlot, ptr %78, i32 0, i32 2
  %80 = load ptr, ptr %79, align 8
  %81 = call { double, double } @_ZNK7QCPAxis5rangeEv(ptr noundef nonnull align 8 dereferenceable(472) %80)
  %82 = getelementptr inbounds { double, double }, ptr %11, i32 0, i32 0
  %83 = extractvalue { double, double } %81, 0
  store double %83, ptr %82, align 8
  %84 = getelementptr inbounds { double, double }, ptr %11, i32 0, i32 1
  %85 = extractvalue { double, double } %81, 1
  store double %85, ptr %84, align 8
  %86 = call noundef double @_ZNK8QCPRange6centerEv(ptr noundef nonnull align 8 dereferenceable(16) %11)
  call void @_ZN7QCPAxis10scaleRangeEdd(ptr noundef nonnull align 8 dereferenceable(472) %76, double noundef %77, double noundef %86)
  %87 = load ptr, ptr %5, align 8
  call void @_ZN11QCustomPlot6replotENS_15RefreshPriorityE(ptr noundef nonnull align 8 dereferenceable(513) %87, i32 noundef 3)
  br label %88

88:                                               ; preds = %60, %58, %45
  ret void
}