; Function Attrs: mustprogress uwtable
define void @_ZN17LteRlcGraphDialog8zoomAxesEb(ptr nocapture noundef nonnull readonly align 8 dereferenceable(268) %0, i1 noundef zeroext %1) local_unnamed_addr #0 align 2 {
  %3 = getelementptr inbounds i8, ptr %0, i64 136
  %4 = load ptr, ptr %3, align 8
  %5 = getelementptr inbounds i8, ptr %4, i64 176
  %6 = load ptr, ptr %5, align 8
  %7 = tail call noundef ptr @_ZNK11QCustomPlot8axisRectEi(ptr noundef nonnull align 8 dereferenceable(513) %6, i32 noundef 0)
  %8 = tail call noundef double @_ZN11QCPAxisRect15rangeZoomFactorEN2Qt11OrientationE(ptr noundef nonnull align 8 dereferenceable(432) %7, i32 noundef 1)
  %9 = tail call noundef ptr @_ZNK11QCustomPlot8axisRectEi(ptr noundef nonnull align 8 dereferenceable(513) %6, i32 noundef 0)
  %10 = tail call noundef double @_ZN11QCPAxisRect15rangeZoomFactorEN2Qt11OrientationE(ptr noundef nonnull align 8 dereferenceable(432) %9, i32 noundef 2)
  %reciprocal = fdiv double 1.000000e+00, %8
  %reciprocal16 = fdiv double 1.000000e+00, %10
  %.015 = select i1 %1, double %8, double %reciprocal
  %.0 = select i1 %1, double %10, double %reciprocal16
  %11 = getelementptr inbounds i8, ptr %6, i64 48
  %12 = load ptr, ptr %11, align 8
  %13 = getelementptr inbounds i8, ptr %12, i64 304
  %.sroa.0.0.copyload.i = load double, ptr %13, align 8
  %.sroa.2.0..sroa_idx.i = getelementptr inbounds i8, ptr %12, i64 312
  %.sroa.2.0.copyload.i = load double, ptr %.sroa.2.0..sroa_idx.i, align 8
  %14 = fsub double %.sroa.2.0.copyload.i, %.sroa.0.0.copyload.i
  br i1 %1, label %15, label %17

15:                                               ; preds = %2
  %16 = fcmp olt double %14, 1.000000e+01
  br i1 %16, label %30, label %19

17:                                               ; preds = %2
  %18 = fcmp ogt double %14, 6.554600e+04
  br i1 %18, label %30, label %19

19:                                               ; preds = %17, %15
  %20 = getelementptr inbounds i8, ptr %6, i64 40
  %21 = load ptr, ptr %20, align 8
  %22 = getelementptr inbounds i8, ptr %21, i64 304
  %.sroa.0.0.copyload.i22 = load double, ptr %22, align 8
  %.sroa.2.0..sroa_idx.i23 = getelementptr inbounds i8, ptr %21, i64 312
  %.sroa.2.0.copyload.i24 = load double, ptr %.sroa.2.0..sroa_idx.i23, align 8
  %23 = fadd double %.sroa.0.0.copyload.i22, %.sroa.2.0.copyload.i24
  %24 = fmul double %23, 5.000000e-01
  tail call void @_ZN7QCPAxis10scaleRangeEdd(ptr noundef nonnull align 8 dereferenceable(472) %21, double noundef %.015, double noundef %24)
  %25 = getelementptr inbounds i8, ptr %6, i64 48
  %26 = load ptr, ptr %25, align 8
  %27 = getelementptr inbounds i8, ptr %26, i64 304
  %.sroa.0.0.copyload.i27 = load double, ptr %27, align 8
  %.sroa.2.0..sroa_idx.i28 = getelementptr inbounds i8, ptr %26, i64 312
  %.sroa.2.0.copyload.i29 = load double, ptr %.sroa.2.0..sroa_idx.i28, align 8
  %28 = fadd double %.sroa.0.0.copyload.i27, %.sroa.2.0.copyload.i29
  %29 = fmul double %28, 5.000000e-01
  tail call void @_ZN7QCPAxis10scaleRangeEdd(ptr noundef nonnull align 8 dereferenceable(472) %26, double noundef %.0, double noundef %29)
  tail call void @_ZN11QCustomPlot6replotENS_15RefreshPriorityE(ptr noundef nonnull align 8 dereferenceable(513) %6, i32 noundef 3)
  br label %30

30:                                               ; preds = %17, %15, %19
  ret void
}